target datalayout = "e-m:e-p270:32:32-p271:32:32-p272:64:64-i64:64-i128:128-f80:128-n8:16:32:64-S128"
target triple = "x86_64-pc-linux-gnu"

%struct.lua_State = type { i8, i8, i8, i8, i8, i8, i8, ptr, ptr, ptr, ptr, ptr, ptr, ptr, ptr, i32, i32, i16, i16, i32, ptr, ptr, ptr, ptr, ptr }
%struct.global_State = type { %struct.stringtable, ptr, ptr, i8, i8, ptr, ptr, ptr, i64, i64, i32, i32, i32, [40 x ptr], [40 x ptr], ptr, ptr, ptr, [256 x i64], ptr, %struct.UpVal, [11 x ptr], [11 x ptr], [21 x ptr], %struct.lua_TValue, %struct.lua_TValue, i32, ptr, i64, [4 x i64], %struct.lua_Callbacks, %struct.lua_ExecutionCallbacks, [128 x ptr], [128 x ptr], [128 x ptr], %struct.GCStats }
%struct.stringtable = type { ptr, i32, i32 }
%struct.UpVal = type { i8, i8, i8, i8, ptr, %union.anon }
%union.anon = type { %struct.anon }
%struct.anon = type { ptr, ptr, ptr }
%struct.lua_TValue = type { %union.Value, [1 x i32], i32 }
%union.Value = type { ptr }
%struct.lua_Callbacks = type { ptr, ptr, ptr, ptr, ptr, ptr, ptr, ptr, ptr, ptr }
%struct.lua_ExecutionCallbacks = type { ptr, ptr, ptr, ptr, ptr, ptr, ptr }
%struct.GCStats = type { [32 x i32], i32, i32, i64, i64, i64, double, double, double }

; Function Attrs: mustprogress nounwind uwtable
define internal noundef i32 @_ZL12pcg32_randomPm(ptr noundef %0) #1 {
  %2 = alloca ptr, align 8
  %3 = alloca i64, align 8
  %4 = alloca i32, align 4
  %5 = alloca i32, align 4
  store ptr %0, ptr %2, align 8, !tbaa !35
  call void @llvm.lifetime.start.p0(i64 8, ptr %3) #11
  %6 = load ptr, ptr %2, align 8, !tbaa !35
  %7 = load i64, ptr %6, align 8, !tbaa !22
  store i64 %7, ptr %3, align 8, !tbaa !22
  %8 = load i64, ptr %3, align 8, !tbaa !22
  %9 = mul i64 %8, 6364136223846793005
  %10 = add i64 %9, 105
  %11 = load ptr, ptr %2, align 8, !tbaa !35
  store i64 %10, ptr %11, align 8, !tbaa !22
  call void @llvm.lifetime.start.p0(i64 4, ptr %4) #11
  %12 = load i64, ptr %3, align 8, !tbaa !22
  %13 = lshr i64 %12, 18
  %14 = load i64, ptr %3, align 8, !tbaa !22
  %15 = xor i64 %13, %14
  %16 = lshr i64 %15, 27
  %17 = trunc i64 %16 to i32
  store i32 %17, ptr %4, align 4, !tbaa !39
  call void @llvm.lifetime.start.p0(i64 4, ptr %5) #11
  %18 = load i64, ptr %3, align 8, !tbaa !22
  %19 = lshr i64 %18, 59
  %20 = trunc i64 %19 to i32
  store i32 %20, ptr %5, align 4, !tbaa !39
  %21 = load i32, ptr %4, align 4, !tbaa !39
  %22 = load i32, ptr %5, align 4, !tbaa !39
  %23 = lshr i32 %21, %22
  %24 = load i32, ptr %4, align 4, !tbaa !39
  %25 = load i32, ptr %5, align 4, !tbaa !39
  %26 = sub nsw i32 0, %25
  %27 = and i32 %26, 31
  %28 = shl i32 %24, %27
  %29 = or i32 %23, %28
  call void @llvm.lifetime.end.p0(i64 4, ptr %5) #11
  call void @llvm.lifetime.end.p0(i64 4, ptr %4) #11
  call void @llvm.lifetime.end.p0(i64 8, ptr %3) #11
  ret i32 %29
}

; Function Attrs: mustprogress uwtable
define internal void @_ZL10pcg32_seedPmm(ptr noundef %0, i64 noundef %1) #2 {
  %3 = alloca ptr, align 8
  %4 = alloca i64, align 8
  store ptr %0, ptr %3, align 8, !tbaa !35
  store i64 %1, ptr %4, align 8, !tbaa !22
  %5 = load ptr, ptr %3, align 8, !tbaa !35
  store i64 0, ptr %5, align 8, !tbaa !22
  %6 = load ptr, ptr %3, align 8, !tbaa !35
  %7 = call noundef i32 @_ZL12pcg32_randomPm(ptr noundef %6)
  %8 = load i64, ptr %4, align 8, !tbaa !22
  %9 = load ptr, ptr %3, align 8, !tbaa !35
  %10 = load i64, ptr %9, align 8, !tbaa !22
  %11 = add i64 %10, %8
  store i64 %11, ptr %9, align 8, !tbaa !22
  %12 = load ptr, ptr %3, align 8, !tbaa !35
  %13 = call noundef i32 @_ZL12pcg32_randomPm(ptr noundef %12)
  ret void
}

; Function Attrs: mustprogress uwtable
define internal noundef i32 @_ZL15math_randomseedP9lua_State(ptr noundef %0) #2 {
  %2 = alloca ptr, align 8
  %3 = alloca i32, align 4
  store ptr %0, ptr %2, align 8, !tbaa !20
  call void @llvm.lifetime.start.p0(i64 4, ptr %3) #11
  %4 = load ptr, ptr %2, align 8, !tbaa !20
  %5 = call noundef i32 @_Z17luaL_checkintegerP9lua_Statei(ptr noundef %4, i32 noundef 1)
  store i32 %5, ptr %3, align 4, !tbaa !39
  %6 = load ptr, ptr %2, align 8, !tbaa !20
  %7 = getelementptr inbounds nuw %struct.lua_State, ptr %6, i32 0, i32 9
  %8 = load ptr, ptr %7, align 8, !tbaa !24
  %9 = getelementptr inbounds nuw %struct.global_State, ptr %8, i32 0, i32 28
  %10 = load i32, ptr %3, align 4, !tbaa !39
  %11 = sext i32 %10 to i64
  call void @_ZL10pcg32_seedPmm(ptr noundef %9, i64 noundef %11)
  call void @llvm.lifetime.end.p0(i64 4, ptr %3) #11
  ret i32 0
}