; Function Attrs: mustprogress uwtable
define internal noundef i32 @_ZL15math_randomseedP9lua_State(ptr noundef %0) #0 {
  %2 = tail call noundef i32 @_Z17luaL_checkintegerP9lua_Statei(ptr noundef %0, i32 noundef 1)
  %3 = getelementptr inbounds nuw i8, ptr %0, i64 24
  %4 = load ptr, ptr %3, align 8, !tbaa !4
  %5 = getelementptr inbounds nuw i8, ptr %4, i64 3248
  %6 = sext i32 %2 to i64
  %7 = mul i64 %6, 6364136223846793005
  %8 = add i64 %7, 4151516850369407454
  store i64 %8, ptr %5, align 8, !tbaa !19
  ret i32 0
}